target datalayout = "e-m:e-p270:32:32-p271:32:32-p272:64:64-i64:64-i128:128-f80:128-n8:16:32:64-S128"
target triple = "x86_64-pc-linux-gnu"

%struct.yyguts_t = type { ptr, ptr, ptr, i64, i64, ptr, i8, i32, i32, ptr, i32, i32, i32, i32, i32, ptr, i32, ptr, i32, i32, ptr, i32, i32, ptr }
%struct.yy_buffer_state = type { ptr, ptr, ptr, i32, i32, i32, i32, i32, i32, i32, i32, i32 }
%struct._YR_COMPILER = type { i32, i32, i32, i32, i32, [1 x %struct.__jmp_buf_tag], ptr, ptr, ptr, ptr, ptr, ptr, ptr, ptr, ptr, ptr, ptr, ptr, ptr, ptr, i32, i32, [4 x ptr], [4 x ptr], i32, i32, i32, [16 x ptr], i32, [16 x ptr], i32, [256 x i8], [1024 x i8], ptr, i16, [1024 x i8], ptr, %struct.rq, %struct.cs, ptr, i32 }
%struct.__jmp_buf_tag = type { [8 x i64], i32, %struct.__sigset_t }
%struct.__sigset_t = type { [16 x i64] }
%struct.rq = type { ptr, ptr }
%struct.cs = type { ptr, ptr }

@.str.20 = private unnamed_addr constant [41 x i8] c"out of dynamic memory in yy_scan_bytes()\00", align 1
@.str.21 = private unnamed_addr constant [30 x i8] c"bad buffer in yy_scan_bytes()\00", align 1

; Function Attrs: nounwind uwtable
define ptr @yara_yyget_extra(ptr noundef %0) #0 {
  %2 = alloca ptr, align 8
  %3 = alloca ptr, align 8
  store ptr %0, ptr %2, align 8
  %4 = load ptr, ptr %2, align 8
  store ptr %4, ptr %3, align 8
  %5 = load ptr, ptr %3, align 8
  %6 = getelementptr inbounds %struct.yyguts_t, ptr %5, i32 0, i32 0
  %7 = load ptr, ptr %6, align 8
  ret ptr %7
}

; Function Attrs: nounwind uwtable
define void @yara_yyfatal(ptr noundef %0, ptr noundef %1) #0 {
  %3 = alloca ptr, align 8
  %4 = alloca ptr, align 8
  %5 = alloca ptr, align 8
  %6 = alloca i32, align 4
  store ptr %0, ptr %3, align 8
  store ptr %1, ptr %4, align 8
  %7 = load ptr, ptr %3, align 8
  %8 = call ptr @yara_yyget_extra(ptr noundef %7)
  store ptr %8, ptr %5, align 8
  %9 = load ptr, ptr %5, align 8
  %10 = getelementptr inbounds %struct._YR_COMPILER, ptr %9, i32 0, i32 4
  %11 = load i32, ptr %10, align 8
  store i32 %11, ptr %6, align 4
  %12 = load ptr, ptr %3, align 8
  %13 = load ptr, ptr %5, align 8
  %14 = load ptr, ptr %4, align 8
  call void @yara_yyerror(ptr noundef %12, ptr noundef %13, ptr noundef %14)
  %15 = load i32, ptr %6, align 4
  %16 = load ptr, ptr %5, align 8
  %17 = getelementptr inbounds %struct._YR_COMPILER, ptr %16, i32 0, i32 4
  store i32 %15, ptr %17, align 8
  %18 = load ptr, ptr %5, align 8
  %19 = getelementptr inbounds %struct._YR_COMPILER, ptr %18, i32 0, i32 5
  %20 = getelementptr inbounds [1 x %struct.__jmp_buf_tag], ptr %19, i64 0, i64 0
  call void @longjmp(ptr noundef %20, i32 noundef 1) #14
  unreachable
}

; Function Attrs: nounwind uwtable
define ptr @yyalloc(i64 noundef %0, ptr noundef %1) #0 {
  %3 = alloca i64, align 8
  %4 = alloca ptr, align 8
  %5 = alloca ptr, align 8
  store i64 %0, ptr %3, align 8
  store ptr %1, ptr %4, align 8
  %6 = load ptr, ptr %4, align 8
  store ptr %6, ptr %5, align 8
  %7 = load i64, ptr %3, align 8
  %8 = call noalias ptr @malloc(i64 noundef %7) #15
  ret ptr %8
}

; Function Attrs: nounwind uwtable
define ptr @yy_scan_bytes(ptr noundef %0, i32 noundef %1, ptr noundef %2) #0 {
  %4 = alloca ptr, align 8
  %5 = alloca i32, align 4
  %6 = alloca ptr, align 8
  %7 = alloca ptr, align 8
  %8 = alloca ptr, align 8
  %9 = alloca i64, align 8
  %10 = alloca i32, align 4
  store ptr %0, ptr %4, align 8
  store i32 %1, ptr %5, align 4
  store ptr %2, ptr %6, align 8
  %11 = load i32, ptr %5, align 4
  %12 = add nsw i32 %11, 2
  %13 = sext i32 %12 to i64
  store i64 %13, ptr %9, align 8
  %14 = load i64, ptr %9, align 8
  %15 = load ptr, ptr %6, align 8
  %16 = call ptr @yyalloc(i64 noundef %14, ptr noundef %15)
  store ptr %16, ptr %8, align 8
  %17 = load ptr, ptr %8, align 8
  %18 = icmp ne ptr %17, null
  br i1 %18, label %21, label %19

19:                                               ; preds = %3
  %20 = load ptr, ptr %6, align 8
  call void @yara_yyfatal(ptr noundef %20, ptr noundef @.str.20)
  br label %21

21:                                               ; preds = %19, %3
  store i32 0, ptr %10, align 4
  br label %22

22:                                               ; preds = %36, %21
  %23 = load i32, ptr %10, align 4
  %24 = load i32, ptr %5, align 4
  %25 = icmp slt i32 %23, %24
  br i1 %25, label %26, label %39

26:                                               ; preds = %22
  %27 = load ptr, ptr %4, align 8
  %28 = load i32, ptr %10, align 4
  %29 = sext i32 %28 to i64
  %30 = getelementptr inbounds i8, ptr %27, i64 %29
  %31 = load i8, ptr %30, align 1
  %32 = load ptr, ptr %8, align 8
  %33 = load i32, ptr %10, align 4
  %34 = sext i32 %33 to i64
  %35 = getelementptr inbounds i8, ptr %32, i64 %34
  store i8 %31, ptr %35, align 1
  br label %36

36:                                               ; preds = %26
  %37 = load i32, ptr %10, align 4
  %38 = add nsw i32 %37, 1
  store i32 %38, ptr %10, align 4
  br label %22

39:                                               ; preds = %22
  %40 = load ptr, ptr %8, align 8
  %41 = load i32, ptr %5, align 4
  %42 = add nsw i32 %41, 1
  %43 = sext i32 %42 to i64
  %44 = getelementptr inbounds i8, ptr %40, i64 %43
  store i8 0, ptr %44, align 1
  %45 = load ptr, ptr %8, align 8
  %46 = load i32, ptr %5, align 4
  %47 = sext i32 %46 to i64
  %48 = getelementptr inbounds i8, ptr %45, i64 %47
  store i8 0, ptr %48, align 1
  %49 = load ptr, ptr %8, align 8
  %50 = load i64, ptr %9, align 8
  %51 = load ptr, ptr %6, align 8
  %52 = call ptr @yy_scan_buffer(ptr noundef %49, i64 noundef %50, ptr noundef %51)
  store ptr %52, ptr %7, align 8
  %53 = load ptr, ptr %7, align 8
  %54 = icmp ne ptr %53, null
  br i1 %54, label %57, label %55

55:                                               ; preds = %39
  %56 = load ptr, ptr %6, align 8
  call void @yara_yyfatal(ptr noundef %56, ptr noundef @.str.21)
  br label %57

57:                                               ; preds = %55, %39
  %58 = load ptr, ptr %7, align 8
  %59 = getelementptr inbounds %struct.yy_buffer_state, ptr %58, i32 0, i32 5
  store i32 1, ptr %59, align 8
  %60 = load ptr, ptr %7, align 8
  ret ptr %60
}