; Function Attrs: nounwind uwtable
define noundef ptr @yy_scan_bytes(ptr nocapture noundef readonly %0, i32 noundef %1, ptr nocapture noundef %2) local_unnamed_addr #0 {
  %4 = add nsw i32 %1, 2
  %5 = sext i32 %4 to i64
  %6 = tail call noalias noundef ptr @malloc(i64 noundef %5) #34
  %.not = icmp eq ptr %6, null
  br i1 %.not, label %9, label %.preheader

.preheader:                                       ; preds = %3
  %7 = icmp sgt i32 %1, 0
  br i1 %7, label %.lr.ph.preheader, label %._crit_edge

.lr.ph.preheader:                                 ; preds = %.preheader
  %8 = zext nneg i32 %1 to i64
  tail call void @llvm.memcpy.p0.p0.i64(ptr nonnull align 1 %6, ptr align 1 %0, i64 %8, i1 false)
  br label %._crit_edge

9:                                                ; preds = %3
  %10 = load ptr, ptr %2, align 8
  %11 = getelementptr inbounds i8, ptr %10, i64 16
  %12 = load i32, ptr %11, align 8
  tail call void @yara_yyerror(ptr noundef nonnull %2, ptr noundef %10, ptr noundef nonnull @.str.20)
  store i32 %12, ptr %11, align 8
  %13 = getelementptr inbounds i8, ptr %10, i64 24
  tail call void @longjmp(ptr noundef nonnull %13, i32 noundef 1) #31
  unreachable

._crit_edge:                                      ; preds = %.lr.ph.preheader, %.preheader
  %14 = sext i32 %1 to i64
  %15 = getelementptr i8, ptr %6, i64 %14
  %16 = getelementptr i8, ptr %15, i64 1
  store i8 0, ptr %16, align 1
  store i8 0, ptr %15, align 1
  %17 = tail call ptr @yy_scan_buffer(ptr noundef nonnull %6, i64 noundef %5, ptr noundef %2)
  %.not23 = icmp eq ptr %17, null
  br i1 %.not23, label %18, label %23

18:                                               ; preds = %._crit_edge
  %19 = load ptr, ptr %2, align 8
  %20 = getelementptr inbounds i8, ptr %19, i64 16
  %21 = load i32, ptr %20, align 8
  tail call void @yara_yyerror(ptr noundef nonnull %2, ptr noundef %19, ptr noundef nonnull @.str.21)
  store i32 %21, ptr %20, align 8
  %22 = getelementptr inbounds i8, ptr %19, i64 24
  tail call void @longjmp(ptr noundef nonnull %22, i32 noundef 1) #31
  unreachable

23:                                               ; preds = %._crit_edge
  %24 = getelementptr inbounds i8, ptr %17, i64 32
  store i32 1, ptr %24, align 8
  ret ptr %17
}